target datalayout = "e-m:e-p270:32:32-p271:32:32-p272:64:64-i64:64-i128:128-f80:128-n8:16:32:64-S128"
target triple = "x86_64-pc-linux-gnu"

%struct.TAR_MEMBER = type { ptr, ptr, ptr, ptr, i8, i64, i64, ptr }
%struct.__va_list_tag = type { i32, i32, ptr, ptr }

; Function Attrs: nounwind uwtable
define internal i64 @tarWrite(ptr noundef %0, i64 noundef %1, ptr noundef %2) #0 {
  %4 = alloca ptr, align 8
  %5 = alloca i64, align 8
  %6 = alloca ptr, align 8
  %7 = alloca i64, align 8
  store ptr %0, ptr %4, align 8
  store i64 %1, ptr %5, align 8
  store ptr %2, ptr %6, align 8
  call void @llvm.lifetime.start.p0(i64 8, ptr %7) #12
  %8 = load ptr, ptr %4, align 8
  %9 = load i64, ptr %5, align 8
  %10 = load ptr, ptr %6, align 8
  %11 = getelementptr inbounds nuw %struct.TAR_MEMBER, ptr %10, i32 0, i32 0
  %12 = load ptr, ptr %11, align 8
  %13 = call i64 @fwrite(ptr noundef %8, i64 noundef 1, i64 noundef %9, ptr noundef %12)
  store i64 %13, ptr %7, align 8
  %14 = load i64, ptr %7, align 8
  %15 = load ptr, ptr %6, align 8
  %16 = getelementptr inbounds nuw %struct.TAR_MEMBER, ptr %15, i32 0, i32 5
  %17 = load i64, ptr %16, align 8
  %18 = add i64 %17, %14
  store i64 %18, ptr %16, align 8
  %19 = load i64, ptr %7, align 8
  call void @llvm.lifetime.end.p0(i64 8, ptr %7) #12
  ret i64 %19
}

; Function Attrs: nounwind uwtable
define internal i32 @tarPrintf(ptr noundef %0, ptr noundef %1, ...) #0 {
  %3 = alloca ptr, align 8
  %4 = alloca ptr, align 8
  %5 = alloca i32, align 4
  %6 = alloca ptr, align 8
  %7 = alloca i64, align 8
  %8 = alloca i64, align 8
  %9 = alloca [1 x %struct.__va_list_tag], align 16
  %10 = alloca i32, align 4
  store ptr %0, ptr %3, align 8
  store ptr %1, ptr %4, align 8
  call void @llvm.lifetime.start.p0(i64 4, ptr %5) #12
  %11 = call ptr @__errno_location() #15
  %12 = load i32, ptr %11, align 4
  store i32 %12, ptr %5, align 4
  call void @llvm.lifetime.start.p0(i64 8, ptr %6) #12
  call void @llvm.lifetime.start.p0(i64 8, ptr %7) #12
  store i64 128, ptr %7, align 8
  call void @llvm.lifetime.start.p0(i64 8, ptr %8) #12
  br label %13

13:                                               ; preds = %34, %2
  call void @llvm.lifetime.start.p0(i64 24, ptr %9) #12
  %14 = load i64, ptr %7, align 8
  %15 = call ptr @pg_malloc(i64 noundef %14)
  store ptr %15, ptr %6, align 8
  %16 = load i32, ptr %5, align 4
  %17 = call ptr @__errno_location() #15
  store i32 %16, ptr %17, align 4
  %18 = getelementptr inbounds [1 x %struct.__va_list_tag], ptr %9, i64 0, i64 0
  call void @llvm.va_start.p0(ptr %18)
  %19 = load ptr, ptr %6, align 8
  %20 = load i64, ptr %7, align 8
  %21 = load ptr, ptr %4, align 8
  %22 = getelementptr inbounds [1 x %struct.__va_list_tag], ptr %9, i64 0, i64 0
  %23 = call i64 @pvsnprintf(ptr noundef %19, i64 noundef %20, ptr noundef %21, ptr noundef %22)
  store i64 %23, ptr %8, align 8
  %24 = getelementptr inbounds [1 x %struct.__va_list_tag], ptr %9, i64 0, i64 0
  call void @llvm.va_end.p0(ptr %24)
  %25 = load i64, ptr %8, align 8
  %26 = load i64, ptr %7, align 8
  %27 = icmp ult i64 %25, %26
  br i1 %27, label %28, label %29

28:                                               ; preds = %13
  store i32 2, ptr %10, align 4
  br label %32

29:                                               ; preds = %13
  %30 = load ptr, ptr %6, align 8
  call void @free(ptr noundef %30) #12
  %31 = load i64, ptr %8, align 8
  store i64 %31, ptr %7, align 8
  store i32 0, ptr %10, align 4
  br label %32

32:                                               ; preds = %29, %28
  call void @llvm.lifetime.end.p0(i64 24, ptr %9) #12
  %33 = load i32, ptr %10, align 4
  switch i32 %33, label %43 [
    i32 0, label %34
    i32 2, label %35
  ]

34:                                               ; preds = %32
  br label %13

35:                                               ; preds = %32
  %36 = load ptr, ptr %6, align 8
  %37 = load i64, ptr %8, align 8
  %38 = load ptr, ptr %3, align 8
  %39 = call i64 @tarWrite(ptr noundef %36, i64 noundef %37, ptr noundef %38)
  store i64 %39, ptr %8, align 8
  %40 = load ptr, ptr %6, align 8
  call void @free(ptr noundef %40) #12
  %41 = load i64, ptr %8, align 8
  %42 = trunc i64 %41 to i32
  store i32 1, ptr %10, align 4
  call void @llvm.lifetime.end.p0(i64 8, ptr %8) #12
  call void @llvm.lifetime.end.p0(i64 8, ptr %7) #12
  call void @llvm.lifetime.end.p0(i64 8, ptr %6) #12
  call void @llvm.lifetime.end.p0(i64 4, ptr %5) #12
  ret i32 %42

43:                                               ; preds = %32
  unreachable
}