; Function Attrs: nounwind uwtable
define internal void @tarPrintf(ptr noundef captures(none) %0, ptr noundef %1, ...) unnamed_addr #0 {
  %3 = alloca [1 x %struct.__va_list_tag], align 16
  %4 = tail call ptr @__errno_location() #20
  %5 = load i32, ptr %4, align 4
  call void @llvm.lifetime.start.p0(i64 24, ptr nonnull %3) #17
  %6 = tail call ptr @pg_malloc(i64 noundef 128) #17
  store i32 %5, ptr %4, align 4
  call void @llvm.va_start.p0(ptr nonnull %3)
  %7 = call i64 @pvsnprintf(ptr noundef %6, i64 noundef 128, ptr noundef %1, ptr noundef nonnull %3) #17
  call void @llvm.va_end.p0(ptr nonnull %3)
  %8 = icmp ult i64 %7, 128
  br i1 %8, label %._crit_edge, label %.lr.ph

.lr.ph:                                           ; preds = %2, %.lr.ph
  %9 = phi i64 [ %12, %.lr.ph ], [ %7, %2 ]
  %10 = phi ptr [ %11, %.lr.ph ], [ %6, %2 ]
  call void @free(ptr noundef %10) #17
  call void @llvm.lifetime.end.p0(i64 24, ptr nonnull %3) #17
  call void @llvm.lifetime.start.p0(i64 24, ptr nonnull %3) #17
  %11 = call ptr @pg_malloc(i64 noundef %9) #17
  store i32 %5, ptr %4, align 4
  call void @llvm.va_start.p0(ptr nonnull %3)
  %12 = call i64 @pvsnprintf(ptr noundef %11, i64 noundef %9, ptr noundef %1, ptr noundef nonnull %3) #17
  call void @llvm.va_end.p0(ptr nonnull %3)
  %13 = icmp ult i64 %12, %9
  br i1 %13, label %._crit_edge, label %.lr.ph

._crit_edge:                                      ; preds = %.lr.ph, %2
  %.lcssa19 = phi ptr [ %6, %2 ], [ %11, %.lr.ph ]
  %.lcssa = phi i64 [ %7, %2 ], [ %12, %.lr.ph ]
  call void @llvm.lifetime.end.p0(i64 24, ptr nonnull %3) #17
  %14 = load ptr, ptr %0, align 8
  %15 = call noundef i64 @fwrite(ptr noundef %.lcssa19, i64 noundef 1, i64 noundef %.lcssa, ptr noundef %14)
  %16 = getelementptr inbounds nuw i8, ptr %0, i64 40
  %17 = load i64, ptr %16, align 8
  %18 = add i64 %17, %15
  store i64 %18, ptr %16, align 8
  call void @free(ptr noundef %.lcssa19) #17
  ret void
}